target datalayout = "e-m:e-p270:32:32-p271:32:32-p272:64:64-i64:64-i128:128-f80:128-n8:16:32:64-S128"
target triple = "x86_64-unknown-linux-gnu"

%class.btSphereTriangleCollisionAlgorithm = type <{ %class.btActivatingCollisionAlgorithm, i8, [7 x i8], ptr, i8, [7 x i8] }>
%class.btActivatingCollisionAlgorithm = type { %class.btCollisionAlgorithm }
%class.btCollisionAlgorithm = type { ptr, ptr }
%struct.btCollisionObjectWrapper = type { ptr, ptr, ptr, ptr, ptr, i32, i32 }

; Function Attrs: mustprogress nounwind uwtable
define linkonce_odr dso_local noundef ptr @_ZNK24btCollisionObjectWrapper18getCollisionObjectEv(ptr noundef nonnull align 8 dereferenceable(48) %this) #1 comdat align 2 {
entry:
  %this.addr = alloca ptr, align 8
  store ptr %this, ptr %this.addr, align 8
  %this1 = load ptr, ptr %this.addr, align 8
  %m_collisionObject = getelementptr inbounds %struct.btCollisionObjectWrapper, ptr %this1, i32 0, i32 2
  %0 = load ptr, ptr %m_collisionObject, align 8
  ret ptr %0
}

; Function Attrs: mustprogress uwtable
define dso_local void @_ZN34btSphereTriangleCollisionAlgorithmC2EP20btPersistentManifoldRK36btCollisionAlgorithmConstructionInfoPK24btCollisionObjectWrapperS7_b(ptr noundef nonnull align 8 dereferenceable(33) %this, ptr noundef %mf, ptr noundef nonnull align 8 dereferenceable(16) %ci, ptr noundef %body0Wrap, ptr noundef %body1Wrap, i1 noundef zeroext %swapped) unnamed_addr #2 align 2 personality ptr @__gxx_personality_v0 {
entry:
  %this.addr = alloca ptr, align 8
  %mf.addr = alloca ptr, align 8
  %ci.addr = alloca ptr, align 8
  %body0Wrap.addr = alloca ptr, align 8
  %body1Wrap.addr = alloca ptr, align 8
  %swapped.addr = alloca i8, align 1
  %exn.slot = alloca ptr, align 8
  %ehselector.slot = alloca i32, align 4
  store ptr %this, ptr %this.addr, align 8
  store ptr %mf, ptr %mf.addr, align 8
  store ptr %ci, ptr %ci.addr, align 8
  store ptr %body0Wrap, ptr %body0Wrap.addr, align 8
  store ptr %body1Wrap, ptr %body1Wrap.addr, align 8
  %frombool = zext i1 %swapped to i8
  store i8 %frombool, ptr %swapped.addr, align 1
  %this1 = load ptr, ptr %this.addr, align 8
  %0 = load ptr, ptr %ci.addr, align 8
  %1 = load ptr, ptr %body0Wrap.addr, align 8
  %2 = load ptr, ptr %body1Wrap.addr, align 8
  call void @_ZN30btActivatingCollisionAlgorithmC2ERK36btCollisionAlgorithmConstructionInfoPK24btCollisionObjectWrapperS5_(ptr noundef nonnull align 8 dereferenceable(16) %this1, ptr noundef nonnull align 8 dereferenceable(16) %0, ptr noundef %1, ptr noundef %2)
  store ptr getelementptr inbounds ({ [7 x ptr] }, ptr @_ZTV34btSphereTriangleCollisionAlgorithm, i32 0, i32 0, i32 2), ptr %this1, align 8
  %m_ownManifold = getelementptr inbounds %class.btSphereTriangleCollisionAlgorithm, ptr %this1, i32 0, i32 1
  store i8 0, ptr %m_ownManifold, align 8
  %m_manifoldPtr = getelementptr inbounds %class.btSphereTriangleCollisionAlgorithm, ptr %this1, i32 0, i32 3
  %3 = load ptr, ptr %mf.addr, align 8
  store ptr %3, ptr %m_manifoldPtr, align 8
  %m_swapped = getelementptr inbounds %class.btSphereTriangleCollisionAlgorithm, ptr %this1, i32 0, i32 4
  %4 = load i8, ptr %swapped.addr, align 1
  %tobool = trunc i8 %4 to i1
  %frombool2 = zext i1 %tobool to i8
  store i8 %frombool2, ptr %m_swapped, align 8
  %m_manifoldPtr3 = getelementptr inbounds %class.btSphereTriangleCollisionAlgorithm, ptr %this1, i32 0, i32 3
  %5 = load ptr, ptr %m_manifoldPtr3, align 8
  %tobool4 = icmp ne ptr %5, null
  br i1 %tobool4, label %if.end, label %if.then

if.then:                                          ; preds = %entry
  %m_dispatcher = getelementptr inbounds %class.btCollisionAlgorithm, ptr %this1, i32 0, i32 1
  %6 = load ptr, ptr %m_dispatcher, align 8
  %7 = load ptr, ptr %body0Wrap.addr, align 8
  %call = invoke noundef ptr @_ZNK24btCollisionObjectWrapper18getCollisionObjectEv(ptr noundef nonnull align 8 dereferenceable(48) %7)
          to label %invoke.cont unwind label %lpad

invoke.cont:                                      ; preds = %if.then
  %8 = load ptr, ptr %body1Wrap.addr, align 8
  %call6 = invoke noundef ptr @_ZNK24btCollisionObjectWrapper18getCollisionObjectEv(ptr noundef nonnull align 8 dereferenceable(48) %8)
          to label %invoke.cont5 unwind label %lpad

invoke.cont5:                                     ; preds = %invoke.cont
  %vtable = load ptr, ptr %6, align 8
  %vfn = getelementptr inbounds ptr, ptr %vtable, i64 3
  %9 = load ptr, ptr %vfn, align 8
  %call8 = invoke noundef ptr %9(ptr noundef nonnull align 8 dereferenceable(8) %6, ptr noundef %call, ptr noundef %call6)
          to label %invoke.cont7 unwind label %lpad

invoke.cont7:                                     ; preds = %invoke.cont5
  %m_manifoldPtr9 = getelementptr inbounds %class.btSphereTriangleCollisionAlgorithm, ptr %this1, i32 0, i32 3
  store ptr %call8, ptr %m_manifoldPtr9, align 8
  %m_ownManifold10 = getelementptr inbounds %class.btSphereTriangleCollisionAlgorithm, ptr %this1, i32 0, i32 1
  store i8 1, ptr %m_ownManifold10, align 8
  br label %if.end

lpad:                                             ; preds = %invoke.cont5, %invoke.cont, %if.then
  %10 = landingpad { ptr, i32 }
          cleanup
  %11 = extractvalue { ptr, i32 } %10, 0
  store ptr %11, ptr %exn.slot, align 8
  %12 = extractvalue { ptr, i32 } %10, 1
  store i32 %12, ptr %ehselector.slot, align 4
  call void @_ZN30btActivatingCollisionAlgorithmD2Ev(ptr noundef nonnull align 8 dereferenceable(16) %this1) #8
  br label %eh.resume

if.end:                                           ; preds = %invoke.cont7, %entry
  ret void

eh.resume:                                        ; preds = %lpad
  %exn = load ptr, ptr %exn.slot, align 8
  %sel = load i32, ptr %ehselector.slot, align 4
  %lpad.val = insertvalue { ptr, i32 } poison, ptr %exn, 0
  %lpad.val11 = insertvalue { ptr, i32 } %lpad.val, i32 %sel, 1
  resume { ptr, i32 } %lpad.val11
}