; Function Attrs: mustprogress uwtable
define dso_local void @_ZN34btSphereTriangleCollisionAlgorithmC2EP20btPersistentManifoldRK36btCollisionAlgorithmConstructionInfoPK24btCollisionObjectWrapperS7_b(ptr noundef nonnull align 8 dereferenceable(33) %this, ptr noundef %mf, ptr noundef nonnull align 8 dereferenceable(16) %ci, ptr noundef %body0Wrap, ptr noundef %body1Wrap, i1 noundef zeroext %swapped) unnamed_addr #0 align 2 personality ptr @__gxx_personality_v0 {
entry:
  %frombool = zext i1 %swapped to i8
  tail call void @_ZN30btActivatingCollisionAlgorithmC2ERK36btCollisionAlgorithmConstructionInfoPK24btCollisionObjectWrapperS5_(ptr noundef nonnull align 8 dereferenceable(16) %this, ptr noundef nonnull align 8 dereferenceable(16) %ci, ptr noundef %body0Wrap, ptr noundef %body1Wrap)
  store ptr getelementptr inbounds ({ [7 x ptr] }, ptr @_ZTV34btSphereTriangleCollisionAlgorithm, i64 0, i32 0, i64 2), ptr %this, align 8
  %m_ownManifold = getelementptr inbounds i8, ptr %this, i64 16
  store i8 0, ptr %m_ownManifold, align 8
  %m_manifoldPtr = getelementptr inbounds i8, ptr %this, i64 24
  store ptr %mf, ptr %m_manifoldPtr, align 8
  %m_swapped = getelementptr inbounds i8, ptr %this, i64 32
  store i8 %frombool, ptr %m_swapped, align 8
  %tobool4.not = icmp eq ptr %mf, null
  br i1 %tobool4.not, label %if.then, label %if.end

if.then:                                          ; preds = %entry
  %m_dispatcher = getelementptr inbounds i8, ptr %this, i64 8
  %0 = load ptr, ptr %m_dispatcher, align 8
  %m_collisionObject.i = getelementptr inbounds i8, ptr %body0Wrap, i64 16
  %1 = load ptr, ptr %m_collisionObject.i, align 8
  %m_collisionObject.i3 = getelementptr inbounds i8, ptr %body1Wrap, i64 16
  %2 = load ptr, ptr %m_collisionObject.i3, align 8
  %vtable = load ptr, ptr %0, align 8
  %vfn = getelementptr inbounds i8, ptr %vtable, i64 24
  %3 = load ptr, ptr %vfn, align 8
  %call8 = invoke noundef ptr %3(ptr noundef nonnull align 8 dereferenceable(8) %0, ptr noundef %1, ptr noundef %2)
          to label %invoke.cont7 unwind label %lpad

invoke.cont7:                                     ; preds = %if.then
  store ptr %call8, ptr %m_manifoldPtr, align 8
  store i8 1, ptr %m_ownManifold, align 8
  br label %if.end

lpad:                                             ; preds = %if.then
  %4 = landingpad { ptr, i32 }
          cleanup
  tail call void @_ZN30btActivatingCollisionAlgorithmD2Ev(ptr noundef nonnull align 8 dereferenceable(16) %this) #8
  resume { ptr, i32 } %4

if.end:                                           ; preds = %invoke.cont7, %entry
  ret void
}